ccopy_reg
_reconstructor
p0
(csklearn.feature_extraction.text
CountVectorizer
p1
c__builtin__
object
p2
Ntp3
Rp4
(dp5
S'decode_error'
p6
Vstrict
p7
sS'lowercase'
p8
I01
sS'stop_words'
p9
NsS'vocabulary'
p10
(lp11
V10
p12
aV100
p13
aV11
p14
aV12
p15
aV13
p16
aV14
p17
aV15
p18
aV16
p19
aV17
p20
aV18
p21
aV1861
p22
aV19
p23
aV1945
p24
aV1960s
p25
aV1968
p26
aV1969
p27
aV1970s
p28
aV1990
p29
aV1991
p30
aV1993
p31
aV1999
p32
aV19th
p33
aV20
p34
aV2000
p35
aV2001
p36
aV2002
p37
aV2004
p38
aV2005
p39
aV2006
p40
aV2007
p41
aV2008
p42
aV2009
p43
aV2010
p44
aV2011
p45
aV2012
p46
aV2013
p47
aV20th
p48
aV21
p49
aV22
p50
aV25
p51
aV26
p52
aV27
p53
aV28
p54
aV29
p55
aV30
p56
aV40
p57
aV50
p58
aVable
p59
aVabout
p60
aVabove
p61
aVaccess
p62
aVaccording
p63
aVacross
p64
aVact
p65
aVaction
p66
aVactive
p67
aVactivity
p68
aVactor
p69
aVacts
p70
aVadded
p71
aVaddition
p72
aVaddress
p73
aVadministration
p74
aVadopted
p75
aVadvanced
p76
aVafrica
p77
aVafrican
p78
aVafter
p79
aVagain
p80
aVagainst
p81
aVage
p82
aVagent
p83
aVagreement
p84
aVair
p85
aValbum
p86
aValbums
p87
aVall
p88
aVallies
p89
aValmost
p90
aValong
p91
aValso
p92
aValthough
p93
aVamerica
p94
aVamerican
p95
aVamericans
p96
aVamericas
p97
aVamong
p98
aVamount
p99
aVan
p100
aVancient
p101
aVand
p102
aVangeles
p103
aVanimal
p104
aVanimals
p105
aVannounced
p106
aVannual
p107
aVanother
p108
aVany
p109
aVappeared
p110
aVapplications
p111
aVapproximately
p112
aVapril
p113
aVare
p114
aVarea
p115
aVareas
p116
aVarmy
p117
aVaround
p118
aVartist
p119
aVartists
p120
aVas
p121
aVasia
p122
aVassociated
p123
aVassociation
p124
aVat
p125
aVatlanta
p126
aVatlantic
p127
aVatom
p128
aVatomic
p129
aVattack
p130
aVaugust
p131
aVaustralia
p132
aVauthor
p133
aVavailable
p134
aVaverage
p135
aVaward
p136
aVawards
p137
aVaway
p138
aVback
p139
aVbacon
p140
aVband
p141
aVbase
p142
aVbaseball
p143
aVbased
p144
aVbasic
p145
aVbasis
p146
aVbattle
p147
aVbay
p148
aVbc
p149
aVbe
p150
aVbears
p151
aVbecame
p152
aVbecause
p153
aVbecome
p154
aVbecoming
p155
aVbeen
p156
aVbefore
p157
aVbegan
p158
aVbeginning
p159
aVbehind
p160
aVbeing
p161
aVbelow
p162
aVbest
p163
aVbetween
p164
aVbig
p165
aVbill
p166
aVbillion
p167
aVblack
p168
aVblood
p169
aVboard
p170
aVbody
p171
aVbook
p172
aVbooks
p173
aVborder
p174
aVborn
p175
aVboston
p176
aVboth
p177
aVbowl
p178
aVbritain
p179
aVbritish
p180
aVbuilding
p181
aVbuilt
p182
aVbus
p183
aVbusiness
p184
aVbut
p185
aVby
p186
aVcalifornia
p187
aVcalled
p188
aVcame
p189
aVcampaign
p190
aVcan
p191
aVcanada
p192
aVcancer
p193
aVcapacity
p194
aVcapital
p195
aVcard
p196
aVcards
p197
aVcare
p198
aVcareer
p199
aVcase
p200
aVcases
p201
aVcatholic
p202
aVcause
p203
aVcaused
p204
aVcauses
p205
aVcensus
p206
aVcenter
p207
aVcentral
p208
aVcentury
p209
aVcertain
p210
aVchampionship
p211
aVchampionships
p212
aVchange
p213
aVchanges
p214
aVcharacter
p215
aVcharacters
p216
aVcharge
p217
aVchemical
p218
aVchief
p219
aVchild
p220
aVchildren
p221
aVchina
p222
aVchinese
p223
aVchristian
p224
aVchurch
p225
aVcities
p226
aVcity
p227
aVcivil
p228
aVclass
p229
aVclub
p230
aVcoast
p231
aVcode
p232
aVcollege
p233
aVcolor
p234
aVcommercial
p235
aVcommon
p236
aVcommonly
p237
aVcommunist
p238
aVcommunity
p239
aVcompanies
p240
aVcompany
p241
aVcomplex
p242
aVcomputer
p243
aVcomputers
p244
aVconfederacy
p245
aVconfederate
p246
aVconference
p247
aVconflict
p248
aVcongress
p249
aVconsidered
p250
aVconsists
p251
aVconstitution
p252
aVconsumer
p253
aVcontains
p254
aVcontinued
p255
aVcontract
p256
aVcontrol
p257
aVcorporation
p258
aVcould
p259
aVcountries
p260
aVcountry
p261
aVcounty
p262
aVcourt
p263
aVcreated
p264
aVcultural
p265
aVculture
p266
aVcup
p267
aVcurrent
p268
aVcurrently
p269
aVcut
p270
aVcycle
p271
aVdata
p272
aVdate
p273
aVday
p274
aVdays
p275
aVde
p276
aVdeal
p277
aVdeath
p278
aVdecades
p279
aVdecember
p280
aVdeclared
p281
aVdefined
p282
aVdefinition
p283
aVdemocratic
p284
aVdepartment
p285
aVderived
p286
aVdescribed
p287
aVdesign
p288
aVdesigned
p289
aVdespite
p290
aVdeveloped
p291
aVdevelopment
p292
aVdevice
p293
aVdevices
p294
aVdid
p295
aVdied
p296
aVdifferent
p297
aVdifficult
p298
aVdirectly
p299
aVdisease
p300
aVdistrict
p301
aVdivided
p302
aVdo
p303
aVdoes
p304
aVdomestic
p305
aVdown
p306
aVdr
p307
aVdrug
p308
aVdrugs
p309
aVdue
p310
aVduring
p311
aVeach
p312
aVearlier
p313
aVearliest
p314
aVearly
p315
aVearth
p316
aVearths
p317
aVeast
p318
aVeastern
p319
aVeconomic
p320
aVeconomy
p321
aVeducation
p322
aVeffect
p323
aVeffects
p324
aVeg
p325
aVeight
p326
aVeither
p327
aVelected
p328
aVelection
p329
aVelectrons
p330
aVelements
p331
aVempire
p332
aVend
p333
aVended
p334
aVenergy
p335
aVengine
p336
aVengineering
p337
aVengines
p338
aVengland
p339
aVenglish
p340
aVentertainment
p341
aVentire
p342
aVespecially
p343
aVestablished
p344
aVestimated
p345
aVeurope
p346
aVeuropean
p347
aVeven
p348
aVevents
p349
aVeventually
p350
aVever
p351
aVevery
p352
aVevidence
p353
aVexample
p354
aVexpanded
p355
aVfacebook
p356
aVfame
p357
aVfamily
p358
aVfar
p359
aVfather
p360
aVfeatured
p361
aVfeatures
p362
aVfebruary
p363
aVfederal
p364
aVfew
p365
aVfield
p366
aVfifth
p367
aVfilm
p368
aVfilms
p369
aVfinal
p370
aVfinancial
p371
aVfire
p372
aVfirst
p373
aVfive
p374
aVflag
p375
aVfollowed
p376
aVfollowing
p377
aVfood
p378
aVfootball
p379
aVfor
p380
aVforce
p381
aVforces
p382
aVforeign
p383
aVform
p384
aVformed
p385
aVformer
p386
aVforms
p387
aVfort
p388
aVfound
p389
aVfounded
p390
aVfour
p391
aVfrance
p392
aVfree
p393
aVfreedom
p394
aVfrench
p395
aVfrom
p396
aVfront
p397
aVfull
p398
aVfunctions
p399
aVfurther
p400
aVgained
p401
aVgame
p402
aVgames
p403
aVgeneral
p404
aVgenerally
p405
aVgeorge
p406
aVgerman
p407
aVgermany
p408
aVgiven
p409
aVglobal
p410
aVgoal
p411
aVgold
p412
aVgolden
p413
aVgovernment
p414
aVgreat
p415
aVgreater
p416
aVgreatest
p417
aVgreek
p418
aVgreen
p419
aVground
p420
aVgroup
p421
aVgroups
p422
aVgrowth
p423
aVhad
p424
aVhalf
p425
aVhall
p426
aVhand
p427
aVharry
p428
aVhas
p429
aVhave
p430
aVhaving
p431
aVhe
p432
aVhead
p433
aVhealth
p434
aVheart
p435
aVheavy
p436
aVheld
p437
aVhenry
p438
aVher
p439
aVhigh
p440
aVhigher
p441
aVhighest
p442
aVhighly
p443
aVhim
p444
aVhis
p445
aVhistorically
p446
aVhistory
p447
aVhit
p448
aVhold
p449
aVholiday
p450
aVhome
p451
aVhost
p452
aVhot
p453
aVhours
p454
aVhouse
p455
aVhousehold
p456
aVhow
p457
aVhowever
p458
aVhuman
p459
aVhumans
p460
aVhydrogen
p461
aVice
p462
aVif
p463
aVii
p464
aVimportant
p465
aVin
p466
aVinclude
p467
aVincluded
p468
aVincludes
p469
aVincluding
p470
aVincome
p471
aVincreased
p472
aVindependence
p473
aVindependent
p474
aVindia
p475
aVindian
p476
aVindividual
p477
aVindividuals
p478
aVindustrial
p479
aVindustry
p480
aVinfluence
p481
aVinformation
p482
aVinitially
p483
aVinstitutions
p484
aVinsurance
p485
aVinterest
p486
aVinternational
p487
aVinternet
p488
aVinto
p489
aVintroduced
p490
aVinvasion
p491
aVinvolved
p492
aVireland
p493
aVis
p494
aVisland
p495
aVislands
p496
aVissued
p497
aVissues
p498
aVit
p499
aVitaly
p500
aVits
p501
aVjames
p502
aVjanuary
p503
aVjapan
p504
aVjapanese
p505
aVjefferson
p506
aVjewish
p507
aVjohn
p508
aVjoined
p509
aVjuly
p510
aVjune
p511
aVjust
p512
aVjustice
p513
aVkansas
p514
aVkennedy
p515
aVkey
p516
aVkilled
p517
aVking
p518
aVkingdom
p519
aVknown
p520
aVlabor
p521
aVland
p522
aVlanguage
p523
aVlanguages
p524
aVlarge
p525
aVlargely
p526
aVlarger
p527
aVlargest
p528
aVlast
p529
aVlate
p530
aVlater
p531
aVlatin
p532
aVlaunched
p533
aVlaw
p534
aVlaws
p535
aVlead
p536
aVleader
p537
aVleading
p538
aVleague
p539
aVleast
p540
aVled
p541
aVleft
p542
aVlegal
p543
aVless
p544
aVlevel
p545
aVlevels
p546
aVlife
p547
aVlight
p548
aVlike
p549
aVlimited
p550
aVlincoln
p551
aVline
p552
aVlist
p553
aVliterature
p554
aVlittle
p555
aVlive
p556
aVliving
p557
aVlocal
p558
aVlocated
p559
aVlocation
p560
aVlong
p561
aVlonger
p562
aVlos
p563
aVlost
p564
aVlow
p565
aVlower
p566
aVmade
p567
aVmain
p568
aVmainly
p569
aVmajor
p570
aVmajority
p571
aVmake
p572
aVmaking
p573
aVmale
p574
aVman
p575
aVmanagement
p576
aVmany
p577
aVmarch
p578
aVmarket
p579
aVmass
p580
aVmassachusetts
p581
aVmaterial
p582
aVmay
p583
aVmeaning
p584
aVmeans
p585
aVmedia
p586
aVmedical
p587
aVmember
p588
aVmembers
p589
aVmemorial
p590
aVmemory
p591
aVmen
p592
aVmetal
p593
aVmethod
p594
aVmetropolitan
p595
aVmexico
p596
aVmiddle
p597
aVmilitary
p598
aVmillion
p599
aVmississippi
p600
aVmobile
p601
aVmodel
p602
aVmodern
p603
aVmoney
p604
aVmonths
p605
aVmoon
p606
aVmore
p607
aVmost
p608
aVmoved
p609
aVmovement
p610
aVmuch
p611
aVmultiple
p612
aVmuscles
p613
aVmusic
p614
aVmust
p615
aVmy
p616
aVname
p617
aVnamed
p618
aVnames
p619
aVnation
p620
aVnational
p621
aVnations
p622
aVnative
p623
aVnatural
p624
aVnavy
p625
aVnear
p626
aVnearly
p627
aVnetwork
p628
aVnew
p629
aVnext
p630
aVnfl
p631
aVnixon
p632
aVno
p633
aVnorth
p634
aVnorthern
p635
aVnot
p636
aVnovember
p637
aVnow
p638
aVnumber
p639
aVnumerous
p640
aVoccurs
p641
aVocean
p642
aVoctober
p643
aVof
p644
aVoff
p645
aVoffice
p646
aVofficial
p647
aVofficially
p648
aVoften
p649
aVoil
p650
aVold
p651
aVolder
p652
aVon
p653
aVonce
p654
aVone
p655
aVonline
p656
aVonly
p657
aVopen
p658
aVopened
p659
aVoperations
p660
aVor
p661
aVorder
p662
aVorganization
p663
aVorganizations
p664
aVoriginal
p665
aVoriginally
p666
aVother
p667
aVothers
p668
aVout
p669
aVoutside
p670
aVover
p671
aVoverall
p672
aVown
p673
aVpacific
p674
aVpark
p675
aVpart
p676
aVparticular
p677
aVparticularly
p678
aVparts
p679
aVparty
p680
aVpassenger
p681
aVpay
p682
aVpci
p683
aVpeace
p684
aVpeople
p685
aVper
p686
aVpercent
p687
aVpercentage
p688
aVperformance
p689
aVperformed
p690
aVperiod
p691
aVperson
p692
aVpersonal
p693
aVphysical
p694
aVplace
p695
aVplant
p696
aVplay
p697
aVplayed
p698
aVplayer
p699
aVplayers
p700
aVplaying
p701
aVpoint
p702
aVpolicies
p703
aVpolicy
p704
aVpolitical
p705
aVpope
p706
aVpopular
p707
aVpopulation
p708
aVport
p709
aVposition
p710
aVpositive
p711
aVpotter
p712
aVpower
p713
aVpowers
p714
aVpresent
p715
aVpresidency
p716
aVpresident
p717
aVpresidential
p718
aVprevious
p719
aVpreviously
p720
aVprimarily
p721
aVprimary
p722
aVprivate
p723
aVprocess
p724
aVproduce
p725
aVproduced
p726
aVproducer
p727
aVproduct
p728
aVproduction
p729
aVproducts
p730
aVprofessional
p731
aVprogram
p732
aVprograms
p733
aVproject
p734
aVproperty
p735
aVprotection
p736
aVprovide
p737
aVprovided
p738
aVpublic
p739
aVpublished
p740
aVrange
p741
aVranked
p742
aVrate
p743
aVreaction
p744
aVreagan
p745
aVreceived
p746
aVrecent
p747
aVrecognized
p748
aVrecord
p749
aVrecorded
p750
aVrecording
p751
aVrecords
p752
aVred
p753
aVrefer
p754
aVreferred
p755
aVrefers
p756
aVregion
p757
aVregions
p758
aVrelated
p759
aVrelease
p760
aVreleased
p761
aVreligious
p762
aVremains
p763
aVreplaced
p764
aVrepublic
p765
aVrepublican
p766
aVrequired
p767
aVresearch
p768
aVrest
p769
aVresult
p770
aVresulting
p771
aVreturn
p772
aVreturned
p773
aVright
p774
aVrights
p775
aVriver
p776
aVrobert
p777
aVrock
p778
aVrole
p779
aVroman
p780
aVroosevelt
p781
aVrover
p782
aVrule
p783
aVsaid
p784
aVsales
p785
aVsame
p786
aVsan
p787
aVschool
p788
aVschools
p789
aVscience
p790
aVsea
p791
aVseason
p792
aVseasons
p793
aVsecond
p794
aVsection
p795
aVsecurity
p796
aVsee
p797
aVseen
p798
aVseptember
p799
aVseries
p800
aVserved
p801
aVservice
p802
aVservices
p803
aVserving
p804
aVset
p805
aVseven
p806
aVseveral
p807
aVshe
p808
aVshort
p809
aVshould
p810
aVshow
p811
aVshows
p812
aVside
p813
aVsigned
p814
aVsignificant
p815
aVsimilar
p816
aVsimply
p817
aVsince
p818
aVsingle
p819
aVsite
p820
aVsix
p821
aVsize
p822
aVslave
p823
aVslavery
p824
aVslaves
p825
aVsmall
p826
aVsmaller
p827
aVso
p828
aVsocial
p829
aVsoftware
p830
aVsolar
p831
aVsold
p832
aVsome
p833
aVsometimes
p834
aVsong
p835
aVsongs
p836
aVsound
p837
aVsource
p838
aVsources
p839
aVsouth
p840
aVsouthern
p841
aVsoviet
p842
aVspace
p843
aVspain
p844
aVspanish
p845
aVspecial
p846
aVspecies
p847
aVspecific
p848
aVspending
p849
aVspoken
p850
aVspread
p851
aVst
p852
aVstadium
p853
aVstage
p854
aVstandard
p855
aVstars
p856
aVstarted
p857
aVstate
p858
aVstates
p859
aVsteam
p860
aVstill
p861
aVstone
p862
aVstore
p863
aVstory
p864
aVstreet
p865
aVstrong
p866
aVstudents
p867
aVstudio
p868
aVstudy
p869
aVsubject
p870
aVsubsequent
p871
aVsuccess
p872
aVsuccessful
p873
aVsuch
p874
aVsummer
p875
aVsun
p876
aVsuper
p877
aVsupport
p878
aVsurface
p879
aVsystem
p880
aVsystems
p881
aVtable
p882
aVtake
p883
aVtaken
p884
aVtax
p885
aVteam
p886
aVteams
p887
aVtechnology
p888
aVtelevision
p889
aVten
p890
aVterm
p891
aVterms
p892
aVterritories
p893
aVterritory
p894
aVtexas
p895
aVthan
p896
aVthat
p897
aVthe
p898
aVtheir
p899
aVthem
p900
aVthen
p901
aVthere
p902
aVtherefore
p903
aVthese
p904
aVthey
p905
aVthird
p906
aVthis
p907
aVthose
p908
aVthough
p909
aVthree
p910
aVthrough
p911
aVthroughout
p912
aVthus
p913
aVtime
p914
aVtimes
p915
aVtitle
p916
aVto
p917
aVtoday
p918
aVtogether
p919
aVtook
p920
aVtop
p921
aVtotal
p922
aVtournament
p923
aVtown
p924
aVtrade
p925
aVtraditional
p926
aVtreatment
p927
aVtwo
p928
aVtype
p929
aVtypes
p930
aVtypically
p931
aVunder
p932
aVunion
p933
aVunit
p934
aVunited
p935
aVunits
p936
aVuniversity
p937
aVuntil
p938
aVup
p939
aVupon
p940
aVus
p941
aVuse
p942
aVused
p943
aVusers
p944
aVuses
p945
aVusing
p946
aVusually
p947
aVvalley
p948
aVvalue
p949
aVvariety
p950
aVvarious
p951
aVversion
p952
aVvery
p953
aVvia
p954
aVvice
p955
aVvideo
p956
aVvietnam
p957
aVvirginia
p958
aVvitamin
p959
aVwar
p960
aVwars
p961
aVwas
p962
aVwashington
p963
aVwater
p964
aVwaves
p965
aVway
p966
aVweather
p967
aVweb
p968
aVwell
p969
aVwent
p970
aVwere
p971
aVwest
p972
aVwestern
p973
aVwhat
p974
aVwhen
p975
aVwhere
p976
aVwhether
p977
aVwhich
p978
aVwhile
p979
aVwhite
p980
aVwho
p981
aVwhose
p982
aVwide
p983
aVwidely
p984
aVwill
p985
aVwilliam
p986
aVwindows
p987
aVwinning
p988
aVwith
p989
aVwithin
p990
aVwithout
p991
aVwomen
p992
aVwomens
p993
aVwon
p994
aVword
p995
aVwords
p996
aVwork
p997
aVworking
p998
aVworks
p999
aVworld
p1000
aVworlds
p1001
aVworldwide
p1002
aVworth
p1003
aVwould
p1004
aVwritten
p1005
aVxbox
p1006
aVyear
p1007
aVyears
p1008
aVyork
p1009
aVyou
p1010
aVyoung
p1011
asS'tokenizer'
p1012
NsS'encoding'
p1013
Vutf-8
p1014
sS'token_pattern'
p1015
V(?u)\u005cb\u005cw\u005cw+\u005cb
p1016
sS'max_df'
p1017
F1.0
sS'fixed_vocabulary_'
p1018
I01
sS'analyzer'
p1019
S'word'
p1020
sS'vocabulary_'
p1021
(dp1022
g550
I538
sg88
I76
sg232
I220
sg353
I341
sg223
I211
sg204
I192
sg410
I398
sg390
I378
sg746
I734
sg686
I674
sg147
I135
sg762
I750
sg221
I209
sg205
I193
sg982
I970
sg412
I400
sg599
I587
sg360
I348
sg1011
I999
sg24
I12
sg524
I512
sg917
I905
sg217
I205
sg732
I720
sg715
I703
sg497
I485
sg467
I455
sg1003
I991
sg200
I188
sg773
I761
sg567
I555
sg29
I17
sg359
I347
sg352
I340
sg782
I770
sg246
I234
sg995
I983
sg255
I243
sg236
I224
sg342
I330
sg788
I776
sg545
I533
sg295
I283
sg553
I541
sg509
I497
sg525
I513
sg32
I20
sg753
I741
sg428
I416
sg826
I814
sg119
I107
sg48
I36
sg827
I815
sg381
I369
sg890
I878
sg140
I128
sg505
I493
sg554
I542
sg251
I239
sg743
I731
sg865
I853
sg288
I276
sg400
I388
sg345
I333
sg709
I697
sg348
I336
sg344
I332
sg974
I962
sg252
I240
sg876
I864
sg795
I783
sg536
I524
sg626
I614
sg122
I110
sg62
I50
sg33
I21
sg476
I464
sg498
I486
sg61
I49
sg195
I183
sg487
I475
sg351
I339
sg739
I727
sg610
I598
sg171
I159
sg398
I386
sg224
I212
sg242
I230
sg592
I580
sg235
I223
sg395
I383
sg454
I442
sg736
I724
sg222
I210
sg422
I410
sg73
I61
sg67
I55
sg13
I1
sg866
I854
sg213
I201
sg415
I403
sg492
I480
sg869
I857
sg56
I44
sg237
I225
sg99
I87
sg730
I718
sg829
I817
sg66
I54
sg598
I586
sg214
I202
sg518
I506
sg413
I401
sg618
I606
sg954
I942
sg376
I364
sg190
I178
sg77
I65
sg723
I711
sg443
I431
sg262
I250
sg619
I607
sg922
I910
sg579
I567
sg106
I94
sg942
I930
sg396
I384
sg998
I986
sg117
I105
sg763
I751
sg711
I699
sg254
I242
sg928
I916
sg392
I380
sg893
I881
sg556
I544
sg614
I602
sg903
I891
sg591
I579
sg369
I357
sg166
I154
sg929
I917
sg938
I926
sg918
I906
sg607
I595
sg857
I845
sg475
I463
sg241
I229
sg932
I920
sg961
I949
sg136
I124
sg499
I487
sg375
I363
sg212
I200
sg677
I665
sg520
I508
sg201
I189
sg449
I437
sg632
I620
sg615
I603
sg30
I18
sg664
I652
sg31
I19
sg105
I93
sg775
I763
sg907
I895
sg790
I778
sg666
I654
sg997
I985
sg781
I769
sg191
I179
sg438
I426
sg377
I365
sg573
I561
sg574
I562
sg616
I604
sg354
I342
sg447
I435
sg257
I245
sg435
I423
sg724
I712
sg280
I268
sg456
I444
sg885
I873
sg83
I71
sg440
I428
sg278
I266
sg690
I678
sg97
I85
sg461
I449
sg847
I835
sg623
I611
sg309
I297
sg482
I470
sg935
I923
sg333
I321
sg411
I399
sg737
I725
sg302
I290
sg70
I58
sg758
I746
sg457
I445
sg453
I441
sg104
I92
sg321
I309
sg696
I684
sg181
I169
sg583
I571
sg313
I301
sg286
I274
sg297
I285
sg111
I99
sg725
I713
sg289
I277
sg965
I953
sg273
I261
sg717
I705
sg534
I522
sg272
I260
sg930
I918
sg575
I563
sg809
I797
sg624
I612
sg391
I379
sg548
I536
sg133
I121
sg564
I552
sg852
I840
sg418
I406
sg219
I207
sg828
I816
sg800
I788
sg78
I66
sg356
I344
sg284
I272
sg701
I689
sg660
I648
sg804
I792
sg646
I634
sg799
I787
sg291
I279
sg671
I659
sg290
I278
sg569
I557
sg925
I913
sg726
I714
sg334
I322
sg470
I458
sg504
I492
sg861
I849
sg501
I489
sg157
I145
sg218
I206
sg52
I40
sg53
I41
sg34
I22
sg49
I37
sg50
I38
sg559
I547
sg693
I681
sg54
I42
sg55
I43
sg988
I976
sg387
I375
sg228
I216
sg729
I717
sg881
I869
sg704
I692
sg568
I556
sg45
I33
sg44
I32
sg47
I35
sg46
I34
sg350
I338
sg900
I888
sg772
I760
sg416
I404
sg378
I366
sg582
I570
sg69
I57
sg620
I608
sg752
I740
sg324
I312
sg905
I893
sg425
I413
sg397
I385
sg638
I626
sg274
I262
sg124
I112
sg1001
I989
sg363
I351
sg617
I605
sg328
I316
sg502
I490
sg937
I925
sg631
I619
sg824
I812
sg489
I477
sg312
I300
sg389
I377
sg970
I958
sg298
I286
sg813
I801
sg755
I743
sg436
I424
sg339
I327
sg299
I287
sg596
I584
sg240
I228
sg325
I313
sg158
I146
sg728
I716
sg759
I747
sg173
I161
sg1007
I995
sg625
I613
sg887
I875
sg485
I473
sg846
I834
sg669
I657
sg86
I74
sg557
I545
sg394
I382
sg628
I616
sg341
I329
sg777
I765
sg818
I806
sg768
I756
sg434
I422
sg488
I476
sg891
I879
sg203
I191
sg641
I629
sg473
I461
sg812
I800
sg602
I590
sg79
I67
sg227
I215
sg841
I829
sg886
I874
sg409
I397
sg393
I381
sg855
I843
sg270
I258
sg142
I130
sg187
I175
sg1009
I997
sg589
I577
sg314
I302
sg159
I147
sg196
I184
sg198
I186
sg283
I271
sg89
I77
sg301
I289
sg523
I511
sg264
I252
sg783
I771
sg259
I247
sg244
I232
sg275
I263
sg180
I168
sg915
I903
sg95
I83
sg695
I683
sg28
I16
sg840
I828
sg169
I157
sg570
I558
sg479
I467
sg362
I350
sg850
I838
sg712
I700
sg639
I627
sg655
I643
sg361
I349
sg96
I84
sg75
I63
sg108
I96
sg845
I833
sg658
I646
sg406
I394
sg822
I810
sg317
I305
sg555
I543
sg101
I89
sg802
I790
sg151
I139
sg538
I526
sg921
I909
sg148
I136
sg880
I868
sg540
I528
sg899
I887
sg130
I118
sg644
I632
sg978
I966
sg980
I968
sg508
I496
sg370
I358
sg863
I851
sg613
I601
sg856
I844
sg165
I153
sg897
I885
sg792
I780
sg675
I663
sg920
I908
sg767
I755
sg761
I749
sg676
I664
sg973
I961
sg87
I75
sg896
I884
sg708
I696
sg14
I2
sg12
I0
sg16
I4
sg15
I3
sg18
I6
sg906
I894
sg20
I8
sg19
I7
sg23
I11
sg21
I9
sg733
I721
sg794
I782
sg622
I610
sg734
I722
sg859
I847
sg243
I231
sg408
I396
sg971
I959
sg197
I185
sg956
I944
sg714
I702
sg114
I102
sg102
I90
sg787
I775
sg526
I514
sg176
I164
sg603
I591
sg36
I24
sg430
I418
sg798
I786
sg493
I481
sg174
I162
sg109
I97
sg202
I190
sg26
I14
sg27
I15
sg654
I642
sg59
I47
sg571
I559
sg506
I494
sg883
I871
sg382
I370
sg656
I644
sg419
I407
sg1002
I990
sg697
I685
sg71
I59
sg612
I600
sg909
I897
sg981
I969
sg608
I596
sg326
I314
sg185
I173
sg815
I803
sg663
I651
sg293
I281
sg793
I781
sg94
I82
sg229
I217
sg343
I331
sg250
I238
sg587
I575
sg531
I519
sg593
I581
sg300
I288
sg662
I650
sg926
I914
sg330
I318
sg825
I813
sg731
I719
sg253
I241
sg484
I472
sg189
I177
sg535
I523
sg188
I176
sg678
I666
sg831
I819
sg706
I694
sg811
I799
sg407
I395
sg539
I527
sg115
I103
sg316
I304
sg510
I498
sg367
I355
sg420
I408
sg268
I256
sg144
I132
sg727
I715
sg635
I623
sg916
I904
sg513
I501
sg544
I532
sg160
I148
sg810
I798
sg437
I425
sg657
I645
sg952
I940
sg168
I156
sg60
I48
sg238
I226
sg388
I376
sg558
I546
sg426
I414
sg373
I361
sg303
I291
sg445
I433
sg448
I436
sg585
I573
sg276
I264
sg672
I660
sg889
I877
sg231
I219
sg858
I846
sg627
I615
sg996
I984
sg629
I617
sg311
I299
sg1008
I996
sg307
I295
sg444
I432
sg17
I5
sg260
I248
sg648
I636
sg116
I104
sg405
I393
sg347
I335
sg594
I582
sg172
I160
sg808
I796
sg68
I56
sg760
I748
sg911
I899
sg776
I764
sg976
I964
sg860
I848
sg74
I62
sg134
I122
sg281
I269
sg805
I793
sg621
I609
sg460
I448
sg25
I13
sg266
I254
sg797
I785
sg477
I465
sg233
I221
sg770
I758
sg791
I779
sg541
I529
sg163
I151
sg870
I858
sg751
I739
sg784
I772
sg194
I182
sg364
I352
sg871
I859
sg138
I126
sg269
I257
sg652
I640
sg670
I658
sg994
I982
sg951
I939
sg164
I152
sg640
I628
sg64
I52
sg983
I971
sg346
I334
sg532
I520
sg892
I880
sg131
I119
sg51
I39
sg483
I471
sg832
I820
sg263
I251
sg458
I446
sg959
I947
sg742
I730
sg137
I125
sg987
I975
sg516
I504
sg421
I409
sg226
I214
sg964
I952
sg747
I735
sg529
I517
sg199
I187
sg261
I249
sg757
I745
sg107
I95
sg843
I831
sg81
I69
sg383
I371
sg700
I688
sg780
I768
sg152
I140
sg403
I391
sg143
I131
sg901
I889
sg193
I181
sg702
I690
sg110
I98
sg215
I203
sg668
I656
sg691
I679
sg239
I227
sg1005
I993
sg817
I805
sg225
I213
sg882
I870
sg521
I509
sg637
I625
sg247
I235
sg530
I518
sg287
I275
sg338
I326
sg146
I134
sg72
I60
sg972
I960
sg705
I693
sg310
I298
sg156
I144
sg611
I599
sg853
I841
sg145
I133
sg992
I980
sg894
I882
sg170
I158
sg336
I324
sg366
I354
sg547
I535
sg744
I732
sg372
I360
sg481
I469
sg385
I373
sg22
I10
sg220
I208
sg126
I114
sg100
I88
sg386
I374
sg844
I832
sg837
I825
sg450
I438
sg716
I704
sg904
I892
sg279
I267
sg683
I671
sg355
I343
sg819
I807
sg949
I937
sg85
I73
sg985
I973
sg979
I967
sg764
I752
sg895
I883
sg703
I691
sg577
I565
sg735
I723
sg533
I521
sg806
I794
sg527
I515
sg595
I583
sg698
I686
sg90
I78
sg494
I482
sg913
I901
sg820
I808
sg879
I867
sg63
I51
sg464
I452
sg699
I687
sg308
I296
sg466
I454
sg888
I876
sg357
I345
sg331
I319
sg463
I451
sg680
I668
sg590
I578
sg209
I197
sg500
I488
sg113
I101
sg682
I670
sg572
I560
sg178
I166
sg786
I774
sg588
I576
sg679
I667
sg984
I972
sg528
I516
sg936
I924
sg771
I759
sg807
I795
sg349
I337
sg248
I236
sg441
I429
sg292
I280
sg474
I462
sg943
I931
sg823
I811
sg740
I728
sg940
I928
sg323
I311
sg427
I415
sg947
I935
sg546
I534
sg945
I933
sg216
I204
sg91
I79
sg821
I809
sg182
I170
sg566
I554
sg645
I633
sg207
I195
sg141
I129
sg633
I621
sg969
I957
sg265
I253
sg642
I630
sg692
I680
sg991
I979
sg417
I405
sg340
I328
sg953
I941
sg710
I698
sg898
I886
sg842
I830
sg542
I530
sg875
I863
sg684
I672
sg512
I500
sg98
I86
sg161
I149
sg604
I592
sg305
I293
sg769
I757
sg839
I827
sg129
I117
sg459
I447
sg946
I934
sg719
I707
sg968
I956
sg766
I754
sg358
I346
sg92
I80
sg687
I675
sg424
I412
sg517
I505
sg838
I826
sg851
I839
sg560
I548
sg765
I753
sg337
I325
sg429
I417
sg76
I64
sg245
I233
sg519
I507
sg132
I120
sg578
I566
sg472
I460
sg414
I402
sg745
I733
sg958
I946
sg873
I861
sg315
I303
sg402
I390
sg374
I362
sg491
I479
sg689
I677
sg1000
I988
sg234
I222
sg551
I539
sg121
I109
sg549
I537
sg872
I860
sg515
I503
sg789
I777
sg58
I46
sg1006
I994
sg848
I836
sg478
I466
sg327
I315
sg503
I491
sg707
I695
sg154
I142
sg796
I784
sg999
I987
sg153
I141
sg651
I639
sg649
I637
sg277
I265
sg685
I673
sg833
I821
sg139
I127
sg674
I662
sg39
I27
sg175
I163
sg320
I308
sg329
I317
sg451
I439
sg332
I320
sg738
I726
sg912
I900
sg722
I710
sg177
I165
sg380
I368
sg543
I531
sg750
I738
sg462
I450
sg606
I594
sg304
I292
sg934
I922
sg537
I525
sg754
I742
sg150
I138
sg379
I367
sg184
I172
sg149
I137
sg778
I766
sg601
I589
sg84
I72
sg452
I440
sg93
I81
sg801
I789
sg756
I744
sg877
I865
sg186
I174
sg854
I842
sg401
I389
sg653
I641
sg862
I850
sg206
I194
sg208
I196
sg1004
I992
sg495
I483
sg480
I468
sg605
I593
sg490
I478
sg748
I736
sg103
I91
sg933
I921
sg741
I729
sg65
I53
sg496
I484
sg993
I981
sg661
I649
sg830
I818
sg673
I661
sg720
I708
sg118
I106
sg990
I978
sg963
I951
sg910
I898
sg306
I294
sg803
I791
sg256
I244
sg967
I955
sg721
I709
sg120
I108
sg112
I100
sg371
I359
sg630
I618
sg318
I306
sg600
I588
sg864
I852
sg294
I282
sg439
I427
sg365
I353
sg849
I837
sg878
I866
sg902
I890
sg561
I549
sg563
I551
sg565
I553
sg966
I954
sg455
I443
sg948
I936
sg962
I950
sg335
I323
sg586
I574
sg433
I421
sg634
I622
sg486
I474
sg384
I372
sg507
I495
sg183
I171
sg155
I143
sg650
I638
sg884
I872
sg127
I115
sg271
I259
sg128
I116
sg552
I540
sg442
I430
sg989
I977
sg432
I420
sg643
I631
sg597
I585
sg977
I965
sg874
I862
sg647
I635
sg939
I927
sg814
I802
sg446
I434
sg749
I737
sg162
I150
sg423
I411
sg908
I896
sg816
I804
sg135
I123
sg681
I669
sg834
I822
sg123
I111
sg282
I270
sg210
I198
sg923
I911
sg609
I597
sg785
I773
sg404
I392
sg179
I167
sg774
I762
sg125
I113
sg960
I948
sg322
I310
sg368
I356
sg694
I682
sg80
I68
sg399
I387
sg941
I929
sg950
I938
sg636
I624
sg258
I246
sg319
I307
sg975
I963
sg927
I915
sg57
I45
sg713
I701
sg230
I218
sg667
I655
sg779
I767
sg471
I459
sg285
I273
sg40
I28
sg1010
I998
sg192
I180
sg211
I199
sg944
I932
sg249
I237
sg867
I855
sg514
I502
sg511
I499
sg469
I457
sg986
I974
sg924
I912
sg584
I572
sg465
I453
sg267
I255
sg581
I569
sg468
I456
sg835
I823
sg718
I706
sg296
I284
sg659
I647
sg167
I155
sg522
I510
sg868
I856
sg562
I550
sg955
I943
sg931
I919
sg82
I70
sg688
I676
sg919
I907
sg431
I419
sg37
I25
sg35
I23
sg957
I945
sg580
I568
sg41
I29
sg38
I26
sg914
I902
sg576
I564
sg42
I30
sg43
I31
sg665
I653
sg836
I824
ssS'binary'
p1023
I00
sS'ngram_range'
p1024
(I1
I1
tp1025
sS'preprocessor'
p1026
NsS'min_df'
p1027
I1
sS'max_features'
p1028
NsS'input'
p1029
Vcontent
p1030
sS'dtype'
p1031
cnumpy
int64
p1032
sS'strip_accents'
p1033
Nsb.